target datalayout = "e-m:e-p270:32:32-p271:32:32-p272:64:64-i64:64-i128:128-f80:128-n8:16:32:64-S128"
target triple = "x86_64-pc-linux-gnu"

%struct.lua_State = type { ptr, i8, i8, i8, i8, i16, %union.StkIdRel, ptr, ptr, %union.StkIdRel, %union.StkIdRel, ptr, %union.StkIdRel, ptr, ptr, ptr, %struct.CallInfo, ptr, i64, i32, i32, i32, i32, i32, %struct.anon.2 }
%union.StkIdRel = type { ptr }
%struct.CallInfo = type { %union.StkIdRel, %union.StkIdRel, ptr, ptr, %union.anon, %union.anon.1, i32 }
%union.anon = type { %struct.anon.0 }
%struct.anon.0 = type { ptr, i64, i64 }
%union.anon.1 = type { i32 }
%struct.anon.2 = type { i32, i32 }
%struct.TValue = type { %union.Value, i8 }
%union.Value = type { ptr }
%union.StackValue = type { %struct.TValue }

; Function Attrs: nounwind uwtable
define hidden zeroext i8 @luaT_callTMres(ptr noundef %0, ptr noundef %1, ptr noundef %2, ptr noundef %3, ptr noundef %4) #0 {
  %6 = alloca ptr, align 8
  %7 = alloca ptr, align 8
  %8 = alloca ptr, align 8
  %9 = alloca ptr, align 8
  %10 = alloca ptr, align 8
  %11 = alloca i64, align 8
  %12 = alloca ptr, align 8
  %13 = alloca ptr, align 8
  %14 = alloca ptr, align 8
  %15 = alloca ptr, align 8
  %16 = alloca ptr, align 8
  %17 = alloca ptr, align 8
  %18 = alloca ptr, align 8
  %19 = alloca ptr, align 8
  %20 = alloca ptr, align 8
  store ptr %0, ptr %6, align 8, !tbaa !4
  store ptr %1, ptr %7, align 8, !tbaa !28
  store ptr %2, ptr %8, align 8, !tbaa !28
  store ptr %3, ptr %9, align 8, !tbaa !28
  store ptr %4, ptr %10, align 8, !tbaa !43
  call void @llvm.lifetime.start.p0(i64 8, ptr %11) #6
  %21 = load ptr, ptr %10, align 8, !tbaa !43
  %22 = load ptr, ptr %6, align 8, !tbaa !4
  %23 = getelementptr inbounds nuw %struct.lua_State, ptr %22, i32 0, i32 10
  %24 = load ptr, ptr %23, align 8, !tbaa !36
  %25 = ptrtoint ptr %21 to i64
  %26 = ptrtoint ptr %24 to i64
  %27 = sub i64 %25, %26
  store i64 %27, ptr %11, align 8, !tbaa !48
  call void @llvm.lifetime.start.p0(i64 8, ptr %12) #6
  %28 = load ptr, ptr %6, align 8, !tbaa !4
  %29 = getelementptr inbounds nuw %struct.lua_State, ptr %28, i32 0, i32 6
  %30 = load ptr, ptr %29, align 8, !tbaa !36
  store ptr %30, ptr %12, align 8, !tbaa !43
  call void @llvm.lifetime.start.p0(i64 8, ptr %13) #6
  %31 = load ptr, ptr %12, align 8, !tbaa !43
  store ptr %31, ptr %13, align 8, !tbaa !28
  call void @llvm.lifetime.start.p0(i64 8, ptr %14) #6
  %32 = load ptr, ptr %7, align 8, !tbaa !28
  store ptr %32, ptr %14, align 8, !tbaa !28
  %33 = load ptr, ptr %13, align 8, !tbaa !28
  %34 = getelementptr inbounds nuw %struct.TValue, ptr %33, i32 0, i32 0
  %35 = load ptr, ptr %14, align 8, !tbaa !28
  %36 = getelementptr inbounds nuw %struct.TValue, ptr %35, i32 0, i32 0
  call void @llvm.memcpy.p0.p0.i64(ptr align 8 %34, ptr align 8 %36, i64 8, i1 false), !tbaa.struct !45
  %37 = load ptr, ptr %14, align 8, !tbaa !28
  %38 = getelementptr inbounds nuw %struct.TValue, ptr %37, i32 0, i32 1
  %39 = load i8, ptr %38, align 8, !tbaa !30
  %40 = load ptr, ptr %13, align 8, !tbaa !28
  %41 = getelementptr inbounds nuw %struct.TValue, ptr %40, i32 0, i32 1
  store i8 %39, ptr %41, align 8, !tbaa !30
  call void @llvm.lifetime.end.p0(i64 8, ptr %14) #6
  call void @llvm.lifetime.end.p0(i64 8, ptr %13) #6
  call void @llvm.lifetime.start.p0(i64 8, ptr %15) #6
  %42 = load ptr, ptr %12, align 8, !tbaa !43
  %43 = getelementptr inbounds %union.StackValue, ptr %42, i64 1
  store ptr %43, ptr %15, align 8, !tbaa !28
  call void @llvm.lifetime.start.p0(i64 8, ptr %16) #6
  %44 = load ptr, ptr %8, align 8, !tbaa !28
  store ptr %44, ptr %16, align 8, !tbaa !28
  %45 = load ptr, ptr %15, align 8, !tbaa !28
  %46 = getelementptr inbounds nuw %struct.TValue, ptr %45, i32 0, i32 0
  %47 = load ptr, ptr %16, align 8, !tbaa !28
  %48 = getelementptr inbounds nuw %struct.TValue, ptr %47, i32 0, i32 0
  call void @llvm.memcpy.p0.p0.i64(ptr align 8 %46, ptr align 8 %48, i64 8, i1 false), !tbaa.struct !45
  %49 = load ptr, ptr %16, align 8, !tbaa !28
  %50 = getelementptr inbounds nuw %struct.TValue, ptr %49, i32 0, i32 1
  %51 = load i8, ptr %50, align 8, !tbaa !30
  %52 = load ptr, ptr %15, align 8, !tbaa !28
  %53 = getelementptr inbounds nuw %struct.TValue, ptr %52, i32 0, i32 1
  store i8 %51, ptr %53, align 8, !tbaa !30
  call void @llvm.lifetime.end.p0(i64 8, ptr %16) #6
  call void @llvm.lifetime.end.p0(i64 8, ptr %15) #6
  call void @llvm.lifetime.start.p0(i64 8, ptr %17) #6
  %54 = load ptr, ptr %12, align 8, !tbaa !43
  %55 = getelementptr inbounds %union.StackValue, ptr %54, i64 2
  store ptr %55, ptr %17, align 8, !tbaa !28
  call void @llvm.lifetime.start.p0(i64 8, ptr %18) #6
  %56 = load ptr, ptr %9, align 8, !tbaa !28
  store ptr %56, ptr %18, align 8, !tbaa !28
  %57 = load ptr, ptr %17, align 8, !tbaa !28
  %58 = getelementptr inbounds nuw %struct.TValue, ptr %57, i32 0, i32 0
  %59 = load ptr, ptr %18, align 8, !tbaa !28
  %60 = getelementptr inbounds nuw %struct.TValue, ptr %59, i32 0, i32 0
  call void @llvm.memcpy.p0.p0.i64(ptr align 8 %58, ptr align 8 %60, i64 8, i1 false), !tbaa.struct !45
  %61 = load ptr, ptr %18, align 8, !tbaa !28
  %62 = getelementptr inbounds nuw %struct.TValue, ptr %61, i32 0, i32 1
  %63 = load i8, ptr %62, align 8, !tbaa !30
  %64 = load ptr, ptr %17, align 8, !tbaa !28
  %65 = getelementptr inbounds nuw %struct.TValue, ptr %64, i32 0, i32 1
  store i8 %63, ptr %65, align 8, !tbaa !30
  call void @llvm.lifetime.end.p0(i64 8, ptr %18) #6
  call void @llvm.lifetime.end.p0(i64 8, ptr %17) #6
  %66 = load ptr, ptr %6, align 8, !tbaa !4
  %67 = getelementptr inbounds nuw %struct.lua_State, ptr %66, i32 0, i32 6
  %68 = load ptr, ptr %67, align 8, !tbaa !36
  %69 = getelementptr inbounds %union.StackValue, ptr %68, i64 3
  store ptr %69, ptr %67, align 8, !tbaa !36
  %70 = load ptr, ptr %6, align 8, !tbaa !4
  %71 = getelementptr inbounds nuw %struct.lua_State, ptr %70, i32 0, i32 8
  %72 = load ptr, ptr %71, align 8, !tbaa !46
  %73 = getelementptr inbounds nuw %struct.CallInfo, ptr %72, i32 0, i32 6
  %74 = load i32, ptr %73, align 4, !tbaa !47
  %75 = and i32 %74, 1081344
  %76 = icmp ne i32 %75, 0
  br i1 %76, label %80, label %77

77:                                               ; preds = %5
  %78 = load ptr, ptr %6, align 8, !tbaa !4
  %79 = load ptr, ptr %12, align 8, !tbaa !43
  call void @luaD_call(ptr noundef %78, ptr noundef %79, i32 noundef 1)
  br label %83

80:                                               ; preds = %5
  %81 = load ptr, ptr %6, align 8, !tbaa !4
  %82 = load ptr, ptr %12, align 8, !tbaa !43
  call void @luaD_callnoyield(ptr noundef %81, ptr noundef %82, i32 noundef 1)
  br label %83

83:                                               ; preds = %80, %77
  %84 = load ptr, ptr %6, align 8, !tbaa !4
  %85 = getelementptr inbounds nuw %struct.lua_State, ptr %84, i32 0, i32 10
  %86 = load ptr, ptr %85, align 8, !tbaa !36
  %87 = load i64, ptr %11, align 8, !tbaa !48
  %88 = getelementptr inbounds i8, ptr %86, i64 %87
  store ptr %88, ptr %10, align 8, !tbaa !43
  call void @llvm.lifetime.start.p0(i64 8, ptr %19) #6
  %89 = load ptr, ptr %10, align 8, !tbaa !43
  store ptr %89, ptr %19, align 8, !tbaa !28
  call void @llvm.lifetime.start.p0(i64 8, ptr %20) #6
  %90 = load ptr, ptr %6, align 8, !tbaa !4
  %91 = getelementptr inbounds nuw %struct.lua_State, ptr %90, i32 0, i32 6
  %92 = load ptr, ptr %91, align 8, !tbaa !36
  %93 = getelementptr inbounds %union.StackValue, ptr %92, i32 -1
  store ptr %93, ptr %91, align 8, !tbaa !36
  store ptr %93, ptr %20, align 8, !tbaa !28
  %94 = load ptr, ptr %19, align 8, !tbaa !28
  %95 = getelementptr inbounds nuw %struct.TValue, ptr %94, i32 0, i32 0
  %96 = load ptr, ptr %20, align 8, !tbaa !28
  %97 = getelementptr inbounds nuw %struct.TValue, ptr %96, i32 0, i32 0
  call void @llvm.memcpy.p0.p0.i64(ptr align 8 %95, ptr align 8 %97, i64 8, i1 false), !tbaa.struct !45
  %98 = load ptr, ptr %20, align 8, !tbaa !28
  %99 = getelementptr inbounds nuw %struct.TValue, ptr %98, i32 0, i32 1
  %100 = load i8, ptr %99, align 8, !tbaa !30
  %101 = load ptr, ptr %19, align 8, !tbaa !28
  %102 = getelementptr inbounds nuw %struct.TValue, ptr %101, i32 0, i32 1
  store i8 %100, ptr %102, align 8, !tbaa !30
  call void @llvm.lifetime.end.p0(i64 8, ptr %20) #6
  call void @llvm.lifetime.end.p0(i64 8, ptr %19) #6
  %103 = load ptr, ptr %10, align 8, !tbaa !43
  %104 = getelementptr inbounds nuw %struct.TValue, ptr %103, i32 0, i32 1
  %105 = load i8, ptr %104, align 8, !tbaa !36
  %106 = zext i8 %105 to i32
  %107 = and i32 %106, 63
  %108 = trunc i32 %107 to i8
  call void @llvm.lifetime.end.p0(i64 8, ptr %12) #6
  call void @llvm.lifetime.end.p0(i64 8, ptr %11) #6
  ret i8 %108
}