; Function Attrs: nounwind uwtable
define hidden zeroext range(i8 0, 64) i8 @luaT_callTMres(ptr noundef %0, ptr noundef readonly captures(none) %1, ptr noundef readonly captures(none) %2, ptr noundef readonly captures(none) %3, ptr noundef %4) local_unnamed_addr #0 {
  %6 = getelementptr inbounds nuw i8, ptr %0, i64 48
  %7 = load ptr, ptr %6, align 8, !tbaa !31
  %8 = getelementptr inbounds nuw i8, ptr %0, i64 16
  %9 = load ptr, ptr %8, align 8, !tbaa !31
  %10 = load i64, ptr %1, align 8, !tbaa !31
  store i64 %10, ptr %9, align 8, !tbaa !31
  %11 = getelementptr inbounds nuw i8, ptr %1, i64 8
  %12 = load i8, ptr %11, align 8, !tbaa !24
  %13 = getelementptr inbounds nuw i8, ptr %9, i64 8
  store i8 %12, ptr %13, align 8, !tbaa !24
  %14 = getelementptr inbounds nuw i8, ptr %9, i64 16
  %15 = load i64, ptr %2, align 8, !tbaa !31
  store i64 %15, ptr %14, align 8, !tbaa !31
  %16 = getelementptr inbounds nuw i8, ptr %2, i64 8
  %17 = load i8, ptr %16, align 8, !tbaa !24
  %18 = getelementptr inbounds nuw i8, ptr %9, i64 24
  store i8 %17, ptr %18, align 8, !tbaa !24
  %19 = getelementptr inbounds nuw i8, ptr %9, i64 32
  %20 = load i64, ptr %3, align 8, !tbaa !31
  store i64 %20, ptr %19, align 8, !tbaa !31
  %21 = getelementptr inbounds nuw i8, ptr %3, i64 8
  %22 = load i8, ptr %21, align 8, !tbaa !24
  %23 = getelementptr inbounds nuw i8, ptr %9, i64 40
  store i8 %22, ptr %23, align 8, !tbaa !24
  %24 = load ptr, ptr %8, align 8, !tbaa !31
  %25 = getelementptr inbounds nuw i8, ptr %24, i64 48
  store ptr %25, ptr %8, align 8, !tbaa !31
  %26 = getelementptr inbounds nuw i8, ptr %0, i64 32
  %27 = load ptr, ptr %26, align 8, !tbaa !39
  %28 = getelementptr inbounds nuw i8, ptr %27, i64 60
  %29 = load i32, ptr %28, align 4, !tbaa !40
  %30 = and i32 %29, 1081344
  %.not = icmp eq i32 %30, 0
  br i1 %.not, label %31, label %32

31:                                               ; preds = %5
  tail call void @luaD_call(ptr noundef nonnull %0, ptr noundef nonnull %9, i32 noundef 1) #5
  br label %33

32:                                               ; preds = %5
  tail call void @luaD_callnoyield(ptr noundef nonnull %0, ptr noundef nonnull %9, i32 noundef 1) #5
  br label %33

33:                                               ; preds = %32, %31
  %34 = ptrtoint ptr %4 to i64
  %35 = ptrtoint ptr %7 to i64
  %36 = sub i64 %34, %35
  %37 = load ptr, ptr %6, align 8, !tbaa !31
  %38 = getelementptr inbounds i8, ptr %37, i64 %36
  %39 = load ptr, ptr %8, align 8, !tbaa !31
  %40 = getelementptr inbounds i8, ptr %39, i64 -16
  store ptr %40, ptr %8, align 8, !tbaa !31
  %41 = load i64, ptr %40, align 8, !tbaa !31
  store i64 %41, ptr %38, align 8, !tbaa !31
  %42 = getelementptr inbounds i8, ptr %39, i64 -8
  %43 = load i8, ptr %42, align 8, !tbaa !24
  %44 = getelementptr inbounds nuw i8, ptr %38, i64 8
  store i8 %43, ptr %44, align 8, !tbaa !24
  %45 = and i8 %43, 63
  ret i8 %45
}